; Function Attrs: nounwind uwtable
define void @Io_WriteDot(ptr noundef %0, ptr noundef %1) local_unnamed_addr #0 {
  %3 = tail call ptr @Abc_NtkCollectObjects(ptr noundef %0) #7
  tail call void @Io_WriteDotNtk(ptr noundef %0, ptr noundef %3, ptr noundef null, ptr noundef %1, i32 noundef 0, i32 noundef 0, i32 noundef 0)
  %4 = getelementptr inbounds nuw i8, ptr %3, i64 8
  %5 = load ptr, ptr %4, align 8, !tbaa !3
  %.not.i = icmp eq ptr %5, null
  br i1 %.not.i, label %Vec_PtrFree.exit, label %6

6:                                                ; preds = %2
  tail call void @free(ptr noundef nonnull %5) #7
  br label %Vec_PtrFree.exit

Vec_PtrFree.exit:                                 ; preds = %2, %6
  tail call void @free(ptr noundef nonnull %3) #7
  ret void
}